#include <math.h>
#include <stdio.h>
#include <stdlib.h>
#include <string.h>

int main()
{
	int m,i,c,d=2,e=1,b;
	double s=0;
	int a[100];
	scanf("%d",&m);
	for(i=0;i<m;i++){
		scanf("%d",&a[i]);
	}
	for(i=0;i<m;i++){
		for(c=0;c<a[i];c++){
			s=s+1.0*d/e;
			b=e;
			e=d;
			d=d+b;
		}
		if(i==m-1){
			printf("%.3lf",s);
		}else{
			printf("%.3lf\n",s);
		}
		s=0;
		d=2;
		e=1;
	}
	return 0;
}